target datalayout = "e-m:e-p270:32:32-p271:32:32-p272:64:64-i64:64-i128:128-f80:128-n8:16:32:64-S128"
target triple = "x86_64-pc-linux-gnu"

%"class.ozz::io::File" = type { %"class.ozz::io::Stream", ptr }
%"class.ozz::io::Stream" = type { ptr }

; Function Attrs: mustprogress uwtable
define dso_local noundef i64 @_ZNK3ozz2io4File4SizeEv(ptr noundef nonnull align 8 dereferenceable(16) %0) unnamed_addr #0 align 2 {
  %2 = alloca ptr, align 8
  %3 = alloca ptr, align 8
  %4 = alloca i64, align 8
  %5 = alloca i32, align 4
  %6 = alloca i64, align 8
  store ptr %0, ptr %2, align 8, !tbaa !11
  %7 = load ptr, ptr %2, align 8
  call void @llvm.lifetime.start.p0(i64 8, ptr %3) #10
  %8 = getelementptr inbounds nuw %"class.ozz::io::File", ptr %7, i32 0, i32 1
  %9 = load ptr, ptr %8, align 8, !tbaa !15
  store ptr %9, ptr %3, align 8, !tbaa !9
  call void @llvm.lifetime.start.p0(i64 8, ptr %4) #10
  %10 = load ptr, ptr %3, align 8, !tbaa !9
  %11 = call i64 @ftell(ptr noundef %10)
  store i64 %11, ptr %4, align 8, !tbaa !21
  call void @llvm.lifetime.start.p0(i64 4, ptr %5) #10
  %12 = load ptr, ptr %3, align 8, !tbaa !9
  %13 = call i32 @fseek(ptr noundef %12, i64 noundef 0, i32 noundef 2)
  store i32 %13, ptr %5, align 4, !tbaa !23
  call void @llvm.lifetime.start.p0(i64 8, ptr %6) #10
  %14 = load ptr, ptr %3, align 8, !tbaa !9
  %15 = call i64 @ftell(ptr noundef %14)
  store i64 %15, ptr %6, align 8, !tbaa !21
  %16 = load ptr, ptr %3, align 8, !tbaa !9
  %17 = load i64, ptr %4, align 8, !tbaa !21
  %18 = call i32 @fseek(ptr noundef %16, i64 noundef %17, i32 noundef 0)
  store i32 %18, ptr %5, align 4, !tbaa !23
  %19 = load i64, ptr %6, align 8, !tbaa !21
  call void @llvm.lifetime.end.p0(i64 8, ptr %6) #10
  call void @llvm.lifetime.end.p0(i64 4, ptr %5) #10
  call void @llvm.lifetime.end.p0(i64 8, ptr %4) #10
  call void @llvm.lifetime.end.p0(i64 8, ptr %3) #10
  ret i64 %19
}