; Function Attrs: mustprogress nofree nounwind uwtable
define dso_local noundef i64 @_ZNK3ozz2io4File4SizeEv(ptr noundef nonnull readonly align 8 captures(none) dereferenceable(16) %0) unnamed_addr #0 align 2 {
  %2 = getelementptr inbounds nuw i8, ptr %0, i64 8
  %3 = load ptr, ptr %2, align 8, !tbaa !7
  %4 = tail call i64 @ftell(ptr noundef %3)
  %5 = tail call i32 @fseek(ptr noundef %3, i64 noundef 0, i32 noundef 2)
  %6 = tail call i64 @ftell(ptr noundef %3)
  %7 = tail call i32 @fseek(ptr noundef %3, i64 noundef %4, i32 noundef 0)
  ret i64 %6
}